; Function Attrs: mustprogress uwtable
define internal void @_ZL24pj_molodensky_reverse_3d6PJ_XYZP8PJconsts(ptr dead_on_unwind noalias writable writeonly sret(%struct.PJ_LPZ) align 8 captures(none) initializes((0, 24)) %0, ptr noundef readonly byval(%struct.PJ_XYZ) align 8 captures(none) %1, ptr noundef %2) #0 {
  %4 = alloca %struct.PJ_LPZ, align 8
  %5 = alloca %struct.PJ_LPZ, align 8
  %6 = alloca %struct.PJ_LPZ, align 8
  %7 = alloca %struct.PJ_LPZ, align 8
  %8 = alloca %union.PJ_COORD, align 8
  %9 = getelementptr inbounds nuw i8, ptr %2, i64 88
  %10 = load ptr, ptr %9, align 8, !tbaa !40
  %.sroa.07.0.copyload = load double, ptr %1, align 8, !tbaa !59
  %.sroa.9.0..sroa_idx = getelementptr inbounds nuw i8, ptr %1, i64 8
  %.sroa.9.0.copyload = load double, ptr %.sroa.9.0..sroa_idx, align 8, !tbaa !59
  %.sroa.11.0..sroa_idx = getelementptr inbounds nuw i8, ptr %1, i64 16
  %.sroa.11.0.copyload = load double, ptr %.sroa.11.0..sroa_idx, align 8, !tbaa !59
  %11 = getelementptr inbounds nuw i8, ptr %10, i64 40
  %12 = load i32, ptr %11, align 8, !tbaa !55
  %.not = icmp eq i32 %12, 0
  br i1 %.not, label %14, label %13

13:                                               ; preds = %3
  call void @llvm.lifetime.start.p0(i64 24, ptr nonnull %4) #9
  store double %.sroa.07.0.copyload, ptr %5, align 8, !tbaa !59
  %.sroa.9.0..sroa_idx11 = getelementptr inbounds nuw i8, ptr %5, i64 8
  store double %.sroa.9.0.copyload, ptr %.sroa.9.0..sroa_idx11, align 8, !tbaa !59
  %.sroa.11.0..sroa_idx17 = getelementptr inbounds nuw i8, ptr %5, i64 16
  store double %.sroa.11.0.copyload, ptr %.sroa.11.0..sroa_idx17, align 8, !tbaa !59
  call fastcc void @_ZL20calc_abridged_params6PJ_LPZP8PJconsts(ptr dead_on_unwind noalias writable align 8 %4, ptr noundef nonnull byval(%struct.PJ_LPZ) align 8 %5, ptr noundef nonnull %2)
  %.sroa.0.0.copyload = load double, ptr %4, align 8, !tbaa !59
  %.sroa.6.0..sroa_idx = getelementptr inbounds nuw i8, ptr %4, i64 8
  %.sroa.6.0.copyload = load double, ptr %.sroa.6.0..sroa_idx, align 8, !tbaa !59
  %.sroa.7.0..sroa_idx = getelementptr inbounds nuw i8, ptr %4, i64 16
  %.sroa.7.0.copyload = load double, ptr %.sroa.7.0..sroa_idx, align 8, !tbaa !59
  call void @llvm.lifetime.end.p0(i64 24, ptr nonnull %4) #9
  br label %15

14:                                               ; preds = %3
  call void @llvm.lifetime.start.p0(i64 24, ptr nonnull %6) #9
  store double %.sroa.07.0.copyload, ptr %7, align 8, !tbaa !59
  %.sroa.9.0..sroa_idx13 = getelementptr inbounds nuw i8, ptr %7, i64 8
  store double %.sroa.9.0.copyload, ptr %.sroa.9.0..sroa_idx13, align 8, !tbaa !59
  %.sroa.11.0..sroa_idx19 = getelementptr inbounds nuw i8, ptr %7, i64 16
  store double %.sroa.11.0.copyload, ptr %.sroa.11.0..sroa_idx19, align 8, !tbaa !59
  call fastcc void @_ZL20calc_standard_params6PJ_LPZP8PJconsts(ptr dead_on_unwind noalias writable align 8 %6, ptr noundef nonnull byval(%struct.PJ_LPZ) align 8 %7, ptr noundef nonnull %2)
  %.sroa.0.0.copyload2 = load double, ptr %6, align 8, !tbaa !59
  %.sroa.6.0..sroa_idx3 = getelementptr inbounds nuw i8, ptr %6, i64 8
  %.sroa.6.0.copyload4 = load double, ptr %.sroa.6.0..sroa_idx3, align 8, !tbaa !59
  %.sroa.7.0..sroa_idx5 = getelementptr inbounds nuw i8, ptr %6, i64 16
  %.sroa.7.0.copyload6 = load double, ptr %.sroa.7.0..sroa_idx5, align 8, !tbaa !59
  call void @llvm.lifetime.end.p0(i64 24, ptr nonnull %6) #9
  br label %15

15:                                               ; preds = %14, %13
  %.sroa.7.0 = phi double [ %.sroa.7.0.copyload, %13 ], [ %.sroa.7.0.copyload6, %14 ]
  %.sroa.6.0 = phi double [ %.sroa.6.0.copyload, %13 ], [ %.sroa.6.0.copyload4, %14 ]
  %.sroa.0.0 = phi double [ %.sroa.0.0.copyload, %13 ], [ %.sroa.0.0.copyload2, %14 ]
  %16 = fcmp oeq double %.sroa.0.0, 0x7FF0000000000000
  br i1 %16, label %17, label %19

17:                                               ; preds = %15
  %18 = tail call i32 @proj_errno_set(ptr noundef nonnull %2, i32 noundef 2050)
  call void @llvm.lifetime.start.p0(i64 32, ptr nonnull %8) #9
  call void @_Z16proj_coord_errorv(ptr dead_on_unwind nonnull writable sret(%union.PJ_COORD) align 8 %8)
  call void @llvm.memcpy.p0.p0.i64(ptr noundef nonnull align 8 dereferenceable(24) %0, ptr noundef nonnull align 8 dereferenceable(24) %8, i64 24, i1 false), !tbaa.struct !67
  call void @llvm.lifetime.end.p0(i64 32, ptr nonnull %8) #9
  br label %23

19:                                               ; preds = %15
  %20 = fsub double %.sroa.9.0.copyload, %.sroa.6.0
  %21 = fsub double %.sroa.07.0.copyload, %.sroa.0.0
  %22 = fsub double %.sroa.11.0.copyload, %.sroa.7.0
  store double %21, ptr %0, align 8, !tbaa !59
  %.sroa.9.0..sroa_idx15 = getelementptr inbounds nuw i8, ptr %0, i64 8
  store double %20, ptr %.sroa.9.0..sroa_idx15, align 8, !tbaa !59
  %.sroa.11.0..sroa_idx21 = getelementptr inbounds nuw i8, ptr %0, i64 16
  store double %22, ptr %.sroa.11.0..sroa_idx21, align 8, !tbaa !59
  br label %23

23:                                               ; preds = %19, %17
  ret void
}